; Function Attrs: nounwind uwtable
define ptr @l___private_Lean_Meta_Tactic_Grind_Arith_CommRing_RingId_0__Lean_Meta_Grind_Arith_CommRing_getPowFn___lambda__1___boxed(ptr noundef %0, ptr noundef %1, ptr noundef %2, ptr noundef %3, ptr noundef %4, ptr noundef %5, ptr noundef %6, ptr noundef %7, ptr noundef %8, ptr noundef %9, ptr noundef %10, ptr noundef %11, ptr noundef %12) local_unnamed_addr #1 {
  %14 = load ptr, ptr @l___private_Lean_Meta_Tactic_Grind_Arith_CommRing_RingId_0__Lean_Meta_Grind_Arith_CommRing_getPowFn___lambda__1___closed__3, align 8, !tbaa !9
  %15 = tail call ptr @l_Lean_Expr_const___override(ptr noundef %14, ptr noundef %0) #4
  %16 = load ptr, ptr @l_Lean_Nat_mkType, align 8, !tbaa !9
  %17 = ptrtoint ptr %1 to i64
  %18 = and i64 %17, 1
  %.not.i15 = icmp eq i64 %18, 0
  br i1 %.not.i15, label %19, label %l___private_Lean_Meta_Tactic_Grind_Arith_CommRing_RingId_0__Lean_Meta_Grind_Arith_CommRing_getPowFn___lambda__1.exit

19:                                               ; preds = %13
  %.val.i.i = load i32, ptr %1, align 4, !tbaa !4
  %20 = icmp sgt i32 %.val.i.i, 0
  br i1 %20, label %21, label %23, !prof !11

21:                                               ; preds = %19
  %22 = add nuw i32 %.val.i.i, 1
  store i32 %22, ptr %1, align 4, !tbaa !4
  br label %l___private_Lean_Meta_Tactic_Grind_Arith_CommRing_RingId_0__Lean_Meta_Grind_Arith_CommRing_getPowFn___lambda__1.exit

23:                                               ; preds = %19
  %.not.i.i = icmp eq i32 %.val.i.i, 0
  br i1 %.not.i.i, label %l___private_Lean_Meta_Tactic_Grind_Arith_CommRing_RingId_0__Lean_Meta_Grind_Arith_CommRing_getPowFn___lambda__1.exit, label %24

24:                                               ; preds = %23
  tail call void @lean_inc_ref_cold(ptr noundef nonnull %1) #4
  br label %l___private_Lean_Meta_Tactic_Grind_Arith_CommRing_RingId_0__Lean_Meta_Grind_Arith_CommRing_getPowFn___lambda__1.exit

l___private_Lean_Meta_Tactic_Grind_Arith_CommRing_RingId_0__Lean_Meta_Grind_Arith_CommRing_getPowFn___lambda__1.exit: ; preds = %13, %21, %23, %24
  %25 = tail call ptr @l_Lean_mkApp4(ptr noundef %15, ptr noundef %1, ptr noundef %16, ptr noundef %1, ptr noundef %2) #4
  %26 = tail call ptr @l___private_Lean_Meta_Tactic_Grind_Arith_CommRing_RingId_0__Lean_Meta_Grind_Arith_CommRing_internalizeFn(ptr noundef %25, ptr noundef %4, ptr noundef %5, ptr noundef %6, ptr noundef %7, ptr noundef %8, ptr noundef %9, ptr noundef %10, ptr noundef %11, ptr noundef %12)
  %27 = ptrtoint ptr %3 to i64
  %28 = and i64 %27, 1
  %.not = icmp eq i64 %28, 0
  br i1 %.not, label %29, label %lean_dec.exit

29:                                               ; preds = %l___private_Lean_Meta_Tactic_Grind_Arith_CommRing_RingId_0__Lean_Meta_Grind_Arith_CommRing_getPowFn___lambda__1.exit
  %30 = load i32, ptr %3, align 4, !tbaa !4
  %31 = icmp sgt i32 %30, 1
  br i1 %31, label %32, label %34, !prof !11

32:                                               ; preds = %29
  %33 = add nsw i32 %30, -1
  store i32 %33, ptr %3, align 4, !tbaa !4
  br label %lean_dec.exit

34:                                               ; preds = %29
  %.not.i = icmp eq i32 %30, 0
  br i1 %.not.i, label %lean_dec.exit, label %35

35:                                               ; preds = %34
  tail call void @lean_dec_ref_cold(ptr noundef nonnull %3) #4
  br label %lean_dec.exit

lean_dec.exit:                                    ; preds = %35, %34, %32, %l___private_Lean_Meta_Tactic_Grind_Arith_CommRing_RingId_0__Lean_Meta_Grind_Arith_CommRing_getPowFn___lambda__1.exit
  ret ptr %26
}